target datalayout = "e-m:e-p270:32:32-p271:32:32-p272:64:64-i64:64-i128:128-f80:128-n8:16:32:64-S128"
target triple = "x86_64-pc-linux-gnu"

%struct.AVProbeData = type { ptr, ptr, i32, ptr }
%struct.AVFormatContext = type { ptr, ptr, ptr, ptr, ptr, i32, i32, ptr, i32, ptr, i32, ptr, ptr, i64, i64, i64, i32, i32, i32, i64, i64, ptr, i32, i32, ptr, i32, i32, i32, i32, ptr, i64, i32, i32, %struct.AVIOInterruptCB, i32, i32, i32, i32, i64, i32, i32, i32, i32, i32, i32, i32, i32, i32, i32, i32, i32, i64, i32, i32, i32, i32, i32, ptr, ptr, ptr, ptr, i32, ptr, ptr, ptr, ptr, i32, ptr, ptr, i64, ptr, ptr, ptr, i64 }
%struct.AVIOInterruptCB = type { ptr, ptr }
%struct.AVStream = type { ptr, i32, i32, ptr, ptr, %struct.AVRational, i64, i64, i64, i32, i32, %struct.AVRational, ptr, %struct.AVRational, %struct.AVPacket, i32, %struct.AVRational, i32 }
%struct.AVPacket = type { ptr, i64, i64, ptr, i32, i32, i32, ptr, i32, i64, i64, ptr, ptr, %struct.AVRational }
%struct.AVRational = type { i32, i32 }
%struct.AVCodecParameters = type { i32, i32, i32, ptr, i32, ptr, i32, i32, i64, i32, i32, i32, i32, i32, i32, %struct.AVRational, %struct.AVRational, i32, i32, i32, i32, i32, i32, i32, %struct.AVChannelLayout, i32, i32, i32, i32, i32, i32 }
%struct.AVChannelLayout = type { i32, i32, %union.anon, ptr }
%union.anon = type { i64 }

@.str = private unnamed_addr constant [4 x i8] c"wve\00", align 1
@.str.1 = private unnamed_addr constant [14 x i8] c"Psion 3 audio\00", align 1
@ff_wve_demuxer = constant { { ptr, ptr, i32, [4 x i8], ptr, ptr, ptr, ptr }, i32, i32, i32, [4 x i8], ptr, ptr, ptr, ptr, ptr, ptr, ptr, ptr, ptr, ptr } { { ptr, ptr, i32, [4 x i8], ptr, ptr, ptr, ptr } { ptr @.str, ptr @.str.1, i32 0, [4 x i8] zeroinitializer, ptr null, ptr null, ptr null, ptr null }, i32 0, i32 0, i32 0, [4 x i8] zeroinitializer, ptr @wve_probe, ptr @wve_read_header, ptr @ff_pcm_read_packet, ptr null, ptr @ff_pcm_read_seek, ptr null, ptr null, ptr null, ptr null, ptr null }, align 8
@.str.2 = private unnamed_addr constant [19 x i8] c"ALawSoundFile**\00\0F\10\00", align 1
@.str.3 = private unnamed_addr constant [11 x i8] c"\00\00\00\01\00\00\00\00\00\00\00", align 1

; Function Attrs: nounwind uwtable
define internal i32 @wve_probe(ptr noundef %0) #0 {
  %2 = alloca i32, align 4
  %3 = alloca ptr, align 8
  store ptr %0, ptr %3, align 8, !tbaa !4
  %4 = load ptr, ptr %3, align 8, !tbaa !4
  %5 = getelementptr inbounds nuw %struct.AVProbeData, ptr %4, i32 0, i32 1
  %6 = load ptr, ptr %5, align 8, !tbaa !9
  %7 = call i32 @memcmp(ptr noundef %6, ptr noundef @.str.2, i64 noundef 18) #4
  %8 = icmp ne i32 %7, 0
  br i1 %8, label %16, label %9

9:                                                ; preds = %1
  %10 = load ptr, ptr %3, align 8, !tbaa !4
  %11 = getelementptr inbounds nuw %struct.AVProbeData, ptr %10, i32 0, i32 1
  %12 = load ptr, ptr %11, align 8, !tbaa !9
  %13 = getelementptr inbounds i8, ptr %12, i64 22
  %14 = call i32 @memcmp(ptr noundef %13, ptr noundef @.str.3, i64 noundef 10) #4
  %15 = icmp ne i32 %14, 0
  br i1 %15, label %16, label %17

16:                                               ; preds = %9, %1
  store i32 0, ptr %2, align 4
  br label %18

17:                                               ; preds = %9
  store i32 100, ptr %2, align 4
  br label %18

18:                                               ; preds = %17, %16
  %19 = load i32, ptr %2, align 4
  ret i32 %19
}

; Function Attrs: nounwind uwtable
define internal i32 @wve_read_header(ptr noundef %0) #0 {
  %2 = alloca i32, align 4
  %3 = alloca ptr, align 8
  %4 = alloca ptr, align 8
  %5 = alloca i32, align 4
  store ptr %0, ptr %3, align 8, !tbaa !13
  call void @llvm.lifetime.start.p0(i64 8, ptr %4) #5
  %6 = load ptr, ptr %3, align 8, !tbaa !13
  %7 = call ptr @avformat_new_stream(ptr noundef %6, ptr noundef null)
  store ptr %7, ptr %4, align 8, !tbaa !15
  %8 = load ptr, ptr %4, align 8, !tbaa !15
  %9 = icmp ne ptr %8, null
  br i1 %9, label %11, label %10

10:                                               ; preds = %1
  store i32 -12, ptr %2, align 4
  store i32 1, ptr %5, align 4
  br label %71

11:                                               ; preds = %1
  %12 = load ptr, ptr %3, align 8, !tbaa !13
  %13 = getelementptr inbounds nuw %struct.AVFormatContext, ptr %12, i32 0, i32 4
  %14 = load ptr, ptr %13, align 8, !tbaa !17
  %15 = call i64 @avio_skip(ptr noundef %14, i64 noundef 18)
  %16 = load ptr, ptr %3, align 8, !tbaa !13
  %17 = getelementptr inbounds nuw %struct.AVFormatContext, ptr %16, i32 0, i32 4
  %18 = load ptr, ptr %17, align 8, !tbaa !17
  %19 = call i32 @avio_rb32(ptr noundef %18)
  %20 = zext i32 %19 to i64
  %21 = load ptr, ptr %4, align 8, !tbaa !15
  %22 = getelementptr inbounds nuw %struct.AVStream, ptr %21, i32 0, i32 7
  store i64 %20, ptr %22, align 8, !tbaa !32
  %23 = load ptr, ptr %4, align 8, !tbaa !15
  %24 = getelementptr inbounds nuw %struct.AVStream, ptr %23, i32 0, i32 3
  %25 = load ptr, ptr %24, align 8, !tbaa !39
  %26 = getelementptr inbounds nuw %struct.AVCodecParameters, ptr %25, i32 0, i32 0
  store i32 1, ptr %26, align 8, !tbaa !40
  %27 = load ptr, ptr %4, align 8, !tbaa !15
  %28 = getelementptr inbounds nuw %struct.AVStream, ptr %27, i32 0, i32 3
  %29 = load ptr, ptr %28, align 8, !tbaa !39
  %30 = getelementptr inbounds nuw %struct.AVCodecParameters, ptr %29, i32 0, i32 1
  store i32 65543, ptr %30, align 4, !tbaa !43
  %31 = load ptr, ptr %4, align 8, !tbaa !15
  %32 = getelementptr inbounds nuw %struct.AVStream, ptr %31, i32 0, i32 3
  %33 = load ptr, ptr %32, align 8, !tbaa !39
  %34 = getelementptr inbounds nuw %struct.AVCodecParameters, ptr %33, i32 0, i32 25
  store i32 8000, ptr %34, align 8, !tbaa !44
  %35 = load ptr, ptr %4, align 8, !tbaa !15
  %36 = getelementptr inbounds nuw %struct.AVStream, ptr %35, i32 0, i32 3
  %37 = load ptr, ptr %36, align 8, !tbaa !39
  %38 = getelementptr inbounds nuw %struct.AVCodecParameters, ptr %37, i32 0, i32 24
  %39 = getelementptr inbounds nuw %struct.AVChannelLayout, ptr %38, i32 0, i32 1
  store i32 1, ptr %39, align 4, !tbaa !45
  %40 = load ptr, ptr %4, align 8, !tbaa !15
  %41 = getelementptr inbounds nuw %struct.AVStream, ptr %40, i32 0, i32 3
  %42 = load ptr, ptr %41, align 8, !tbaa !39
  %43 = getelementptr inbounds nuw %struct.AVCodecParameters, ptr %42, i32 0, i32 9
  store i32 8, ptr %43, align 8, !tbaa !46
  %44 = load ptr, ptr %4, align 8, !tbaa !15
  %45 = getelementptr inbounds nuw %struct.AVStream, ptr %44, i32 0, i32 3
  %46 = load ptr, ptr %45, align 8, !tbaa !39
  %47 = getelementptr inbounds nuw %struct.AVCodecParameters, ptr %46, i32 0, i32 9
  %48 = load i32, ptr %47, align 8, !tbaa !46
  %49 = load ptr, ptr %4, align 8, !tbaa !15
  %50 = getelementptr inbounds nuw %struct.AVStream, ptr %49, i32 0, i32 3
  %51 = load ptr, ptr %50, align 8, !tbaa !39
  %52 = getelementptr inbounds nuw %struct.AVCodecParameters, ptr %51, i32 0, i32 24
  %53 = getelementptr inbounds nuw %struct.AVChannelLayout, ptr %52, i32 0, i32 1
  %54 = load i32, ptr %53, align 4, !tbaa !45
  %55 = mul nsw i32 %48, %54
  %56 = sdiv i32 %55, 8
  %57 = load ptr, ptr %4, align 8, !tbaa !15
  %58 = getelementptr inbounds nuw %struct.AVStream, ptr %57, i32 0, i32 3
  %59 = load ptr, ptr %58, align 8, !tbaa !39
  %60 = getelementptr inbounds nuw %struct.AVCodecParameters, ptr %59, i32 0, i32 26
  store i32 %56, ptr %60, align 4, !tbaa !47
  %61 = load ptr, ptr %4, align 8, !tbaa !15
  %62 = load ptr, ptr %4, align 8, !tbaa !15
  %63 = getelementptr inbounds nuw %struct.AVStream, ptr %62, i32 0, i32 3
  %64 = load ptr, ptr %63, align 8, !tbaa !39
  %65 = getelementptr inbounds nuw %struct.AVCodecParameters, ptr %64, i32 0, i32 25
  %66 = load i32, ptr %65, align 8, !tbaa !44
  call void @avpriv_set_pts_info(ptr noundef %61, i32 noundef 64, i32 noundef 1, i32 noundef %66)
  %67 = load ptr, ptr %3, align 8, !tbaa !13
  %68 = getelementptr inbounds nuw %struct.AVFormatContext, ptr %67, i32 0, i32 4
  %69 = load ptr, ptr %68, align 8, !tbaa !17
  %70 = call i64 @avio_skip(ptr noundef %69, i64 noundef 10)
  store i32 0, ptr %2, align 4
  store i32 1, ptr %5, align 4
  br label %71

71:                                               ; preds = %11, %10
  call void @llvm.lifetime.end.p0(i64 8, ptr %4) #5
  %72 = load i32, ptr %2, align 4
  ret i32 %72
}

declare i32 @ff_pcm_read_packet(ptr noundef, ptr noundef) #1

declare i32 @ff_pcm_read_seek(ptr noundef, i32 noundef, i64 noundef, i32 noundef) #1

; Function Attrs: nounwind willreturn memory(read)
declare i32 @memcmp(ptr noundef, ptr noundef, i64 noundef) #2

; Function Attrs: nocallback nofree nosync nounwind willreturn memory(argmem: readwrite)
declare void @llvm.lifetime.start.p0(i64 immarg, ptr captures(none)) #3

declare ptr @avformat_new_stream(ptr noundef, ptr noundef) #1

declare i64 @avio_skip(ptr noundef, i64 noundef) #1

declare i32 @avio_rb32(ptr noundef) #1

declare void @avpriv_set_pts_info(ptr noundef, i32 noundef, i32 noundef, i32 noundef) #1

; Function Attrs: nocallback nofree nosync nounwind willreturn memory(argmem: readwrite)
declare void @llvm.lifetime.end.p0(i64 immarg, ptr captures(none)) #3


!llvm.module.flags = !{!0, !1, !2, !3}

!0 = !{i32 1, !"wchar_size", i32 4}
!1 = !{i32 8, !"PIC Level", i32 2}
!2 = !{i32 7, !"uwtable", i32 2}
!3 = !{i32 1, !"override-stack-alignment", i32 16}
!4 = !{!5, !5, i64 0}
!5 = !{!"p1 _ZTS11AVProbeData", !6, i64 0}
!6 = !{!"any pointer", !7, i64 0}
!7 = !{!"omnipotent char", !8, i64 0}
!8 = !{!"Simple C/C++ TBAA"}
!9 = !{!10, !11, i64 8}
!10 = !{!"AVProbeData", !11, i64 0, !11, i64 8, !12, i64 16, !11, i64 24}
!11 = !{!"p1 omnipotent char", !6, i64 0}
!12 = !{!"int", !7, i64 0}
!13 = !{!14, !14, i64 0}
!14 = !{!"p1 _ZTS15AVFormatContext", !6, i64 0}
!15 = !{!16, !16, i64 0}
!16 = !{!"p1 _ZTS8AVStream", !6, i64 0}
!17 = !{!18, !22, i64 32}
!18 = !{!"AVFormatContext", !19, i64 0, !20, i64 8, !21, i64 16, !6, i64 24, !22, i64 32, !12, i64 40, !12, i64 44, !23, i64 48, !12, i64 56, !25, i64 64, !12, i64 72, !26, i64 80, !11, i64 88, !27, i64 96, !27, i64 104, !27, i64 112, !12, i64 120, !12, i64 124, !12, i64 128, !27, i64 136, !27, i64 144, !11, i64 152, !12, i64 160, !12, i64 164, !28, i64 168, !12, i64 176, !12, i64 180, !12, i64 184, !12, i64 188, !29, i64 192, !27, i64 200, !12, i64 208, !12, i64 212, !30, i64 216, !12, i64 232, !12, i64 236, !12, i64 240, !12, i64 244, !27, i64 248, !12, i64 256, !12, i64 260, !12, i64 264, !12, i64 268, !12, i64 272, !12, i64 276, !12, i64 280, !12, i64 284, !12, i64 288, !12, i64 292, !12, i64 296, !12, i64 300, !27, i64 304, !12, i64 312, !12, i64 316, !12, i64 320, !12, i64 324, !12, i64 328, !11, i64 336, !11, i64 344, !11, i64 352, !11, i64 360, !12, i64 368, !31, i64 376, !31, i64 384, !31, i64 392, !31, i64 400, !12, i64 408, !6, i64 416, !6, i64 424, !27, i64 432, !11, i64 440, !6, i64 448, !6, i64 456, !27, i64 464}
!19 = !{!"p1 _ZTS7AVClass", !6, i64 0}
!20 = !{!"p1 _ZTS13AVInputFormat", !6, i64 0}
!21 = !{!"p1 _ZTS14AVOutputFormat", !6, i64 0}
!22 = !{!"p1 _ZTS11AVIOContext", !6, i64 0}
!23 = !{!"p2 _ZTS8AVStream", !24, i64 0}
!24 = !{!"any p2 pointer", !6, i64 0}
!25 = !{!"p2 _ZTS13AVStreamGroup", !24, i64 0}
!26 = !{!"p2 _ZTS9AVChapter", !24, i64 0}
!27 = !{!"long", !7, i64 0}
!28 = !{!"p2 _ZTS9AVProgram", !24, i64 0}
!29 = !{!"p1 _ZTS12AVDictionary", !6, i64 0}
!30 = !{!"AVIOInterruptCB", !6, i64 0, !6, i64 8}
!31 = !{!"p1 _ZTS7AVCodec", !6, i64 0}
!32 = !{!33, !27, i64 48}
!33 = !{!"AVStream", !19, i64 0, !12, i64 8, !12, i64 12, !34, i64 16, !6, i64 24, !35, i64 32, !27, i64 40, !27, i64 48, !27, i64 56, !12, i64 64, !12, i64 68, !35, i64 72, !29, i64 80, !35, i64 88, !36, i64 96, !12, i64 200, !35, i64 204, !12, i64 212}
!34 = !{!"p1 _ZTS17AVCodecParameters", !6, i64 0}
!35 = !{!"AVRational", !12, i64 0, !12, i64 4}
!36 = !{!"AVPacket", !37, i64 0, !27, i64 8, !27, i64 16, !11, i64 24, !12, i64 32, !12, i64 36, !12, i64 40, !38, i64 48, !12, i64 56, !27, i64 64, !27, i64 72, !6, i64 80, !37, i64 88, !35, i64 96}
!37 = !{!"p1 _ZTS11AVBufferRef", !6, i64 0}
!38 = !{!"p1 _ZTS16AVPacketSideData", !6, i64 0}
!39 = !{!33, !34, i64 16}
!40 = !{!41, !12, i64 0}
!41 = !{!"AVCodecParameters", !12, i64 0, !12, i64 4, !12, i64 8, !11, i64 16, !12, i64 24, !38, i64 32, !12, i64 40, !12, i64 44, !27, i64 48, !12, i64 56, !12, i64 60, !12, i64 64, !12, i64 68, !12, i64 72, !12, i64 76, !35, i64 80, !35, i64 88, !12, i64 96, !12, i64 100, !12, i64 104, !12, i64 108, !12, i64 112, !12, i64 116, !12, i64 120, !42, i64 128, !12, i64 152, !12, i64 156, !12, i64 160, !12, i64 164, !12, i64 168, !12, i64 172}
!42 = !{!"AVChannelLayout", !12, i64 0, !12, i64 4, !7, i64 8, !6, i64 16}
!43 = !{!41, !12, i64 4}
!44 = !{!41, !12, i64 152}
!45 = !{!41, !12, i64 132}
!46 = !{!41, !12, i64 56}
!47 = !{!41, !12, i64 156}
